target datalayout = "e-m:e-p270:32:32-p271:32:32-p272:64:64-i64:64-i128:128-f80:128-n8:16:32:64-S128"
target triple = "x86_64-pc-linux-gnu"

%"class.absl::lts_20240722::log_internal::Voidify" = type { i8 }
%"class.absl::lts_20240722::log_internal::LogMessage" = type { %"class.absl::lts_20240722::base_internal::ErrnoSaver", %"class.std::unique_ptr" }
%"class.absl::lts_20240722::base_internal::ErrnoSaver" = type { i32 }
%"class.std::unique_ptr" = type { %"struct.std::__uniq_ptr_data" }
%"struct.std::__uniq_ptr_data" = type { %"class.std::__uniq_ptr_impl" }
%"class.std::__uniq_ptr_impl" = type { %"class.std::tuple" }
%"class.std::tuple" = type { %"struct.std::_Tuple_impl" }
%"struct.std::_Tuple_impl" = type { %"struct.std::_Head_base.1" }
%"struct.std::_Head_base.1" = type { ptr }
%struct.grpc_slice = type { ptr, %"union.grpc_slice::grpc_slice_data" }
%"union.grpc_slice::grpc_slice_data" = type { %"struct.grpc_slice::grpc_slice_data::grpc_slice_refcounted", [8 x i8] }
%"struct.grpc_slice::grpc_slice_data::grpc_slice_refcounted" = type { i64, ptr }
%"class.grpc_core::DebugLocation" = type { i8 }
%struct.grpc_slice_buffer = type { ptr, ptr, i64, i64, i64, [6 x %struct.grpc_slice] }
%struct.z_stream_s = type { ptr, i32, i64, ptr, i32, i64, ptr, ptr, ptr, ptr, ptr, i32, i64, i64 }
%"class.absl::lts_20240722::log_internal::LogMessageFatal" = type { %"class.absl::lts_20240722::log_internal::LogMessage" }
%"class.std::basic_string_view" = type { i64, ptr }
%struct.grpc_slice_refcount = type { %"struct.std::atomic.8", ptr }
%"struct.std::atomic.8" = type { %"struct.std::__atomic_base.9" }
%"struct.std::__atomic_base.9" = type { i64 }

@.str = private unnamed_addr constant [132 x i8] c"generated/home/dtcxzyw/WorkSpace/Projects/compilers/llvm-opt-benchmark/bench/grpc/grpc/src/core/lib/compression/message_compress.cc\00", align 1
@.str.2 = private unnamed_addr constant [4 x i8] c"1.3\00", align 1
@.str.3 = private unnamed_addr constant [10 x i8] c"r == Z_OK\00", align 1

; Function Attrs: alwaysinline mustprogress nounwind uwtable
define linkonce_odr noundef i64 @_ZNSt13__atomic_baseImE9fetch_subEmSt12memory_order(ptr noundef nonnull align 8 dereferenceable(8) %0, i64 noundef %1, i32 noundef %2) #18 comdat align 2 {
  %4 = alloca ptr, align 8
  %5 = alloca i64, align 8
  %6 = alloca i32, align 4
  %7 = alloca i64, align 8
  %8 = alloca i64, align 8
  store ptr %0, ptr %4, align 8, !tbaa !68
  store i64 %1, ptr %5, align 8, !tbaa !10
  store i32 %2, ptr %6, align 4, !tbaa !60
  %9 = load ptr, ptr %4, align 8
  %10 = getelementptr inbounds nuw %"struct.std::__atomic_base.9", ptr %9, i32 0, i32 0
  %11 = load i32, ptr %6, align 4, !tbaa !60
  %12 = load i64, ptr %5, align 8, !tbaa !10
  store i64 %12, ptr %7, align 8, !tbaa !10
  switch i32 %11, label %13 [
    i32 1, label %16
    i32 2, label %16
    i32 3, label %19
    i32 4, label %22
    i32 5, label %25
  ]

13:                                               ; preds = %3
  %14 = load i64, ptr %7, align 8
  %15 = atomicrmw sub ptr %10, i64 %14 monotonic, align 8
  store i64 %15, ptr %8, align 8
  br label %28

16:                                               ; preds = %3, %3
  %17 = load i64, ptr %7, align 8
  %18 = atomicrmw sub ptr %10, i64 %17 acquire, align 8
  store i64 %18, ptr %8, align 8
  br label %28

19:                                               ; preds = %3
  %20 = load i64, ptr %7, align 8
  %21 = atomicrmw sub ptr %10, i64 %20 release, align 8
  store i64 %21, ptr %8, align 8
  br label %28

22:                                               ; preds = %3
  %23 = load i64, ptr %7, align 8
  %24 = atomicrmw sub ptr %10, i64 %23 acq_rel, align 8
  store i64 %24, ptr %8, align 8
  br label %28

25:                                               ; preds = %3
  %26 = load i64, ptr %7, align 8
  %27 = atomicrmw sub ptr %10, i64 %26 seq_cst, align 8
  store i64 %27, ptr %8, align 8
  br label %28

28:                                               ; preds = %25, %22, %19, %16, %13
  %29 = load i64, ptr %8, align 8, !tbaa !10
  ret i64 %29
}

; Function Attrs: mustprogress uwtable
define linkonce_odr void @_ZN19grpc_slice_refcount5UnrefEN9grpc_core13DebugLocationE(ptr noundef nonnull align 8 dereferenceable(16) %0) #4 comdat align 2 {
  %2 = alloca ptr, align 8
  %3 = alloca i64, align 8
  store ptr %0, ptr %2, align 8, !tbaa !17
  %4 = load ptr, ptr %2, align 8
  call void @llvm.lifetime.start.p0(i64 8, ptr %3) #3
  %5 = getelementptr inbounds nuw %struct.grpc_slice_refcount, ptr %4, i32 0, i32 0
  %6 = call noundef i64 @_ZNSt13__atomic_baseImE9fetch_subEmSt12memory_order(ptr noundef nonnull align 8 dereferenceable(8) %5, i64 noundef 1, i32 noundef 4) #3
  store i64 %6, ptr %3, align 8, !tbaa !10
  %7 = load i64, ptr %3, align 8, !tbaa !10
  %8 = icmp eq i64 %7, 1
  br i1 %8, label %9, label %12

9:                                                ; preds = %1
  %10 = getelementptr inbounds nuw %struct.grpc_slice_refcount, ptr %4, i32 0, i32 1
  %11 = load ptr, ptr %10, align 8, !tbaa !64
  call void %11(ptr noundef %4)
  br label %12

12:                                               ; preds = %9, %1
  call void @llvm.lifetime.end.p0(i64 8, ptr %3) #3
  ret void
}

; Function Attrs: noinline noreturn nounwind uwtable
define linkonce_odr hidden void @__clang_call_terminate(ptr noundef %0) #14 comdat {
  %2 = call ptr @__cxa_begin_catch(ptr %0) #3
  call void @_ZSt9terminatev() #22
  unreachable
}

; Function Attrs: mustprogress nounwind uwtable
define linkonce_odr noundef i64 @_ZNSt11char_traitsIcE6lengthEPKc(ptr noundef %0) #6 comdat align 2 {
  %2 = alloca ptr, align 8
  store ptr %0, ptr %2, align 8, !tbaa !35
  %3 = load ptr, ptr %2, align 8, !tbaa !35
  %4 = call i64 @strlen(ptr noundef %3) #3
  ret i64 %4
}

; Function Attrs: inlinehint mustprogress uwtable
define linkonce_odr void @_ZN9grpc_core11CSliceUnrefERK10grpc_sliceNS_13DebugLocationE(ptr noundef nonnull align 8 dereferenceable(32) %0) #13 comdat {
  %2 = alloca ptr, align 8
  store ptr %0, ptr %2, align 8, !tbaa !53
  %3 = load ptr, ptr %2, align 8, !tbaa !53
  %4 = getelementptr inbounds nuw %struct.grpc_slice, ptr %3, i32 0, i32 0
  %5 = load ptr, ptr %4, align 8, !tbaa !45
  %6 = ptrtoint ptr %5 to i64
  %7 = icmp ugt i64 %6, 1
  br i1 %7, label %8, label %12

8:                                                ; preds = %1
  %9 = load ptr, ptr %2, align 8, !tbaa !53
  %10 = getelementptr inbounds nuw %struct.grpc_slice, ptr %9, i32 0, i32 0
  %11 = load ptr, ptr %10, align 8, !tbaa !45
  call void @_ZN19grpc_slice_refcount5UnrefEN9grpc_core13DebugLocationE(ptr noundef nonnull align 8 dereferenceable(16) %11)
  br label %12

12:                                               ; preds = %8, %1
  ret void
}

; Function Attrs: mustprogress nounwind uwtable
define linkonce_odr void @_ZN9grpc_core13DebugLocationC2Ev(ptr noundef nonnull align 1 dereferenceable(1) %0) unnamed_addr #6 comdat align 2 {
  %2 = alloca ptr, align 8
  store ptr %0, ptr %2, align 8, !tbaa !54
  ret void
}

; Function Attrs: mustprogress nounwind uwtable
define linkonce_odr void @_ZNKO4absl12lts_2024072212log_internal7VoidifyaaINS1_10LogMessageEEEvRKT_(ptr noundef nonnull align 1 dereferenceable(1) %0, ptr noundef nonnull align 8 dereferenceable(16) %1) #6 comdat align 2 {
  %3 = alloca ptr, align 8
  %4 = alloca ptr, align 8
  store ptr %0, ptr %3, align 8, !tbaa !31
  store ptr %1, ptr %4, align 8, !tbaa !33
  ret void
}

; Function Attrs: mustprogress nounwind uwtable
define linkonce_odr noundef nonnull align 8 dereferenceable(16) ptr @_ZN4absl12lts_2024072212log_internal10LogMessage14InternalStreamEv(ptr noundef nonnull align 8 dereferenceable(16) %0) #6 comdat align 2 {
  %2 = alloca ptr, align 8
  store ptr %0, ptr %2, align 8, !tbaa !33
  %3 = load ptr, ptr %2, align 8
  ret ptr %3
}

; Function Attrs: mustprogress nounwind uwtable
define linkonce_odr void @_ZNSt17basic_string_viewIcSt11char_traitsIcEEC2EPKc(ptr noundef nonnull align 8 dereferenceable(16) %0, ptr noundef nonnull %1) unnamed_addr #6 comdat align 2 personality ptr @__gxx_personality_v0 {
  %3 = alloca ptr, align 8
  %4 = alloca ptr, align 8
  store ptr %0, ptr %3, align 8, !tbaa !38
  store ptr %1, ptr %4, align 8, !tbaa !35
  %5 = load ptr, ptr %3, align 8
  %6 = getelementptr inbounds nuw %"class.std::basic_string_view", ptr %5, i32 0, i32 0
  %7 = load ptr, ptr %4, align 8, !tbaa !35
  %8 = invoke noundef i64 @_ZNSt11char_traitsIcE6lengthEPKc(ptr noundef %7)
          to label %9 unwind label %12

9:                                                ; preds = %2
  store i64 %8, ptr %6, align 8, !tbaa !40
  %10 = getelementptr inbounds nuw %"class.std::basic_string_view", ptr %5, i32 0, i32 1
  %11 = load ptr, ptr %4, align 8, !tbaa !35
  store ptr %11, ptr %10, align 8, !tbaa !42
  ret void

12:                                               ; preds = %2
  %13 = landingpad { ptr, i32 }
          catch ptr null
  %14 = extractvalue { ptr, i32 } %13, 0
  call void @__clang_call_terminate(ptr %14) #22
  unreachable
}

; Function Attrs: mustprogress uwtable
define internal noundef i32 @_ZL15zlib_decompressP17grpc_slice_bufferS0_i(ptr noundef %0, ptr noundef %1, i32 noundef %2) #4 personality ptr @__gxx_personality_v0 {
  %4 = alloca ptr, align 8
  %5 = alloca ptr, align 8
  %6 = alloca i32, align 4
  %7 = alloca %struct.z_stream_s, align 8
  %8 = alloca i32, align 4
  %9 = alloca i64, align 8
  %10 = alloca i64, align 8
  %11 = alloca i64, align 8
  %12 = alloca %"class.absl::lts_20240722::log_internal::Voidify", align 1
  %13 = alloca %"class.absl::lts_20240722::log_internal::LogMessageFatal", align 8
  %14 = alloca i1, align 1
  %15 = alloca %"class.std::basic_string_view", align 8
  %16 = alloca i1, align 1
  %17 = alloca ptr, align 8
  %18 = alloca i32, align 4
  %19 = alloca %"class.grpc_core::DebugLocation", align 1
  store ptr %0, ptr %4, align 8, !tbaa !7
  store ptr %1, ptr %5, align 8, !tbaa !7
  store i32 %2, ptr %6, align 4, !tbaa !22
  call void @llvm.lifetime.start.p0(i64 112, ptr %7) #3
  call void @llvm.lifetime.start.p0(i64 4, ptr %8) #3
  call void @llvm.lifetime.start.p0(i64 8, ptr %9) #3
  call void @llvm.lifetime.start.p0(i64 8, ptr %10) #3
  %20 = load ptr, ptr %5, align 8, !tbaa !7
  %21 = getelementptr inbounds nuw %struct.grpc_slice_buffer, ptr %20, i32 0, i32 2
  %22 = load i64, ptr %21, align 8, !tbaa !12
  store i64 %22, ptr %10, align 8, !tbaa !10
  call void @llvm.lifetime.start.p0(i64 8, ptr %11) #3
  %23 = load ptr, ptr %5, align 8, !tbaa !7
  %24 = getelementptr inbounds nuw %struct.grpc_slice_buffer, ptr %23, i32 0, i32 4
  %25 = load i64, ptr %24, align 8, !tbaa !24
  store i64 %25, ptr %11, align 8, !tbaa !10
  call void @llvm.memset.p0.i64(ptr align 8 %7, i8 0, i64 112, i1 false)
  %26 = getelementptr inbounds nuw %struct.z_stream_s, ptr %7, i32 0, i32 8
  store ptr @_ZL10zalloc_gprPvjj, ptr %26, align 8, !tbaa !25
  %27 = getelementptr inbounds nuw %struct.z_stream_s, ptr %7, i32 0, i32 9
  store ptr @_ZL9zfree_gprPvS_, ptr %27, align 8, !tbaa !29
  %28 = load i32, ptr %6, align 4, !tbaa !22
  %29 = icmp ne i32 %28, 0
  %30 = select i1 %29, i32 16, i32 0
  %31 = or i32 15, %30
  %32 = call i32 @inflateInit2_(ptr noundef %7, i32 noundef %31, ptr noundef @.str.2, i32 noundef 112)
  store i32 %32, ptr %8, align 4, !tbaa !22
  %33 = load i32, ptr %8, align 4, !tbaa !22
  %34 = icmp eq i32 %33, 0
  %35 = xor i1 %34, true
  %36 = zext i1 %35 to i64
  %37 = call i64 @llvm.expect.i64(i64 %36, i64 0)
  %38 = icmp ne i64 %37, 0
  call void @llvm.lifetime.start.p0(i64 1, ptr %12) #3
  store i1 false, ptr %14, align 1
  store i1 false, ptr %16, align 1
  br i1 %38, label %40, label %39

39:                                               ; preds = %3
  br label %48

40:                                               ; preds = %3
  call void @llvm.lifetime.start.p0(i64 16, ptr %13) #3
  store i1 true, ptr %14, align 1
  call void @_ZNSt17basic_string_viewIcSt11char_traitsIcEEC2EPKc(ptr noundef nonnull align 8 dereferenceable(16) %15, ptr noundef @.str.3) #3
  %41 = getelementptr inbounds nuw { i64, ptr }, ptr %15, i32 0, i32 0
  %42 = load i64, ptr %41, align 8
  %43 = getelementptr inbounds nuw { i64, ptr }, ptr %15, i32 0, i32 1
  %44 = load ptr, ptr %43, align 8
  call void @_ZN4absl12lts_2024072212log_internal15LogMessageFatalC1EPKciSt17basic_string_viewIcSt11char_traitsIcEE(ptr noundef nonnull align 8 dereferenceable(16) %13, ptr noundef @.str, i32 noundef 130, i64 %42, ptr %44) #20
  store i1 true, ptr %16, align 1
  %45 = invoke noundef nonnull align 8 dereferenceable(16) ptr @_ZN4absl12lts_2024072212log_internal10LogMessage14InternalStreamEv(ptr noundef nonnull align 8 dereferenceable(16) %13)
          to label %46 unwind label %51

46:                                               ; preds = %40
  invoke void @_ZNKO4absl12lts_2024072212log_internal7VoidifyaaINS1_10LogMessageEEEvRKT_(ptr noundef nonnull align 1 dereferenceable(1) %12, ptr noundef nonnull align 8 dereferenceable(16) %45)
          to label %47 unwind label %51

47:                                               ; preds = %46
  br label %48

48:                                               ; preds = %47, %39
  %49 = load i1, ptr %16, align 1
  br i1 %49, label %50, label %57

50:                                               ; preds = %48
  call void @_ZN4absl12lts_2024072212log_internal15LogMessageFatalD1Ev(ptr noundef nonnull align 8 dereferenceable(16) %13) #22
  unreachable

51:                                               ; preds = %46, %40
  %52 = landingpad { ptr, i32 }
          cleanup
  %53 = extractvalue { ptr, i32 } %52, 0
  store ptr %53, ptr %17, align 8
  %54 = extractvalue { ptr, i32 } %52, 1
  store i32 %54, ptr %18, align 4
  %55 = load i1, ptr %16, align 1
  br i1 %55, label %83, label %85

56:                                               ; No predecessors!
  br label %57

57:                                               ; preds = %56, %48
  %58 = load i1, ptr %14, align 1
  br i1 %58, label %59, label %60

59:                                               ; preds = %57
  call void @llvm.lifetime.end.p0(i64 16, ptr %13) #3
  br label %60

60:                                               ; preds = %59, %57
  call void @llvm.lifetime.end.p0(i64 1, ptr %12) #3
  %61 = load ptr, ptr %4, align 8, !tbaa !7
  %62 = load ptr, ptr %5, align 8, !tbaa !7
  %63 = call noundef i32 @_ZL9zlib_bodyP10z_stream_sP17grpc_slice_bufferS2_PFiS0_iE(ptr noundef %7, ptr noundef %61, ptr noundef %62, ptr noundef @inflate)
  store i32 %63, ptr %8, align 4, !tbaa !22
  %64 = load i32, ptr %8, align 4, !tbaa !22
  %65 = icmp ne i32 %64, 0
  br i1 %65, label %96, label %66

66:                                               ; preds = %60
  %67 = load i64, ptr %10, align 8, !tbaa !10
  store i64 %67, ptr %9, align 8, !tbaa !10
  br label %68

68:                                               ; preds = %80, %66
  %69 = load i64, ptr %9, align 8, !tbaa !10
  %70 = load ptr, ptr %5, align 8, !tbaa !7
  %71 = getelementptr inbounds nuw %struct.grpc_slice_buffer, ptr %70, i32 0, i32 2
  %72 = load i64, ptr %71, align 8, !tbaa !12
  %73 = icmp ult i64 %69, %72
  br i1 %73, label %74, label %89

74:                                               ; preds = %68
  %75 = load ptr, ptr %5, align 8, !tbaa !7
  %76 = getelementptr inbounds nuw %struct.grpc_slice_buffer, ptr %75, i32 0, i32 1
  %77 = load ptr, ptr %76, align 8, !tbaa !15
  %78 = load i64, ptr %9, align 8, !tbaa !10
  %79 = getelementptr inbounds nuw %struct.grpc_slice, ptr %77, i64 %78
  call void @_ZN9grpc_core13DebugLocationC2Ev(ptr noundef nonnull align 1 dereferenceable(1) %19)
  call void @_ZN9grpc_core11CSliceUnrefERK10grpc_sliceNS_13DebugLocationE(ptr noundef nonnull align 8 dereferenceable(32) %79)
  br label %80

80:                                               ; preds = %74
  %81 = load i64, ptr %9, align 8, !tbaa !10
  %82 = add i64 %81, 1
  store i64 %82, ptr %9, align 8, !tbaa !10
  br label %68, !llvm.loop !30

83:                                               ; preds = %51
  call void @_ZN4absl12lts_2024072212log_internal15LogMessageFatalD1Ev(ptr noundef nonnull align 8 dereferenceable(16) %13) #22
  unreachable

84:                                               ; No predecessors!
  br label %85

85:                                               ; preds = %84, %51
  %86 = load i1, ptr %14, align 1
  br i1 %86, label %87, label %88

87:                                               ; preds = %85
  call void @llvm.lifetime.end.p0(i64 16, ptr %13) #3
  br label %88

88:                                               ; preds = %87, %85
  call void @llvm.lifetime.end.p0(i64 1, ptr %12) #3
  call void @llvm.lifetime.end.p0(i64 8, ptr %11) #3
  call void @llvm.lifetime.end.p0(i64 8, ptr %10) #3
  call void @llvm.lifetime.end.p0(i64 8, ptr %9) #3
  call void @llvm.lifetime.end.p0(i64 4, ptr %8) #3
  call void @llvm.lifetime.end.p0(i64 112, ptr %7) #3
  br label %99

89:                                               ; preds = %68
  %90 = load i64, ptr %10, align 8, !tbaa !10
  %91 = load ptr, ptr %5, align 8, !tbaa !7
  %92 = getelementptr inbounds nuw %struct.grpc_slice_buffer, ptr %91, i32 0, i32 2
  store i64 %90, ptr %92, align 8, !tbaa !12
  %93 = load i64, ptr %11, align 8, !tbaa !10
  %94 = load ptr, ptr %5, align 8, !tbaa !7
  %95 = getelementptr inbounds nuw %struct.grpc_slice_buffer, ptr %94, i32 0, i32 4
  store i64 %93, ptr %95, align 8, !tbaa !24
  br label %96

96:                                               ; preds = %89, %60
  %97 = call i32 @inflateEnd(ptr noundef %7)
  %98 = load i32, ptr %8, align 4, !tbaa !22
  call void @llvm.lifetime.end.p0(i64 8, ptr %11) #3
  call void @llvm.lifetime.end.p0(i64 8, ptr %10) #3
  call void @llvm.lifetime.end.p0(i64 8, ptr %9) #3
  call void @llvm.lifetime.end.p0(i64 4, ptr %8) #3
  call void @llvm.lifetime.end.p0(i64 112, ptr %7) #3
  ret i32 %98

99:                                               ; preds = %88
  %100 = load ptr, ptr %17, align 8
  %101 = load i32, ptr %18, align 4
  %102 = insertvalue { ptr, i32 } poison, ptr %100, 0
  %103 = insertvalue { ptr, i32 } %102, i32 %101, 1
  resume { ptr, i32 } %103
}